; Function Attrs: nounwind sspstrong uwtable
define internal i64 @path_world_writable_p(i64 noundef %0) #0 {
  %2 = load i64, ptr @rb_mFileTest, align 8, !tbaa !6
  %3 = load i64, ptr @id_world_writable_p, align 8, !tbaa !6
  %4 = load i64, ptr @id_at_path, align 8, !tbaa !6
  %5 = tail call i64 @rb_ivar_get(i64 noundef %0, i64 noundef %4) #7
  %6 = icmp eq i64 %5, 0
  %7 = and i64 %5, 7
  %8 = icmp ne i64 %7, 0
  %9 = or i1 %6, %8
  br i1 %9, label %rbimpl_RB_TYPE_P_fastpath.exit.thread.i, label %rbimpl_RB_TYPE_P_fastpath.exit.i

rbimpl_RB_TYPE_P_fastpath.exit.i:                 ; preds = %1
  %10 = inttoptr i64 %5 to ptr
  %11 = load i64, ptr %10, align 8, !tbaa !10
  %12 = and i64 %11, 31
  %13 = icmp eq i64 %12, 5
  br i1 %13, label %get_strpath.exit, label %rbimpl_RB_TYPE_P_fastpath.exit.thread.i

rbimpl_RB_TYPE_P_fastpath.exit.thread.i:          ; preds = %rbimpl_RB_TYPE_P_fastpath.exit.i, %1
  %14 = load i64, ptr @rb_eTypeError, align 8, !tbaa !6
  tail call void (i64, ptr, ...) @rb_raise(i64 noundef %14, ptr noundef nonnull @.str.91) #9
  unreachable

get_strpath.exit:                                 ; preds = %rbimpl_RB_TYPE_P_fastpath.exit.i
  %15 = tail call i64 (i64, i64, i32, ...) @rb_funcall(i64 noundef %2, i64 noundef %3, i32 noundef 1, i64 noundef %5) #7
  ret i64 %15
}